target datalayout = "e-m:e-p270:32:32-p271:32:32-p272:64:64-i64:64-i128:128-f80:128-n8:16:32:64-S128"
target triple = "x86_64-pc-linux-gnu"

%struct.FT_ListRec_ = type { ptr, ptr }
%struct.FT_CharMapRec_ = type { ptr, i32, i16, i16 }
%struct.T1_FaceRec_ = type { %struct.FT_FaceRec_, %struct.T1_FontRec_, ptr, ptr, ptr, [2 x %struct.FT_CharMapRec_], [2 x ptr], ptr, i32, i32, i32, ptr, ptr }
%struct.FT_FaceRec_ = type { i64, i64, i64, i64, i64, ptr, ptr, i32, ptr, i32, ptr, %struct.FT_Generic_, %struct.FT_BBox_, i16, i16, i16, i16, i16, i16, i16, i16, ptr, ptr, ptr, ptr, ptr, ptr, %struct.FT_ListRec_, %struct.FT_Generic_, ptr, ptr }
%struct.FT_BBox_ = type { i64, i64, i64, i64 }
%struct.FT_Generic_ = type { ptr, ptr }
%struct.T1_FontRec_ = type { %struct.PS_FontInfoRec_, %struct.PS_FontExtraRec_, %struct.PS_PrivateRec_, ptr, i32, %struct.T1_EncodingRecRec_, ptr, ptr, ptr, i32, ptr, ptr, ptr, i32, ptr, ptr, ptr, i8, i8, %struct.FT_Matrix_, %struct.FT_Vector_, %struct.FT_BBox_, i64, i64 }
%struct.PS_FontInfoRec_ = type { ptr, ptr, ptr, ptr, ptr, i64, i8, i16, i16 }
%struct.PS_FontExtraRec_ = type { i16 }
%struct.PS_PrivateRec_ = type { i32, i32, i8, i8, i8, i8, [14 x i16], [10 x i16], [14 x i16], [10 x i16], i64, i32, i32, [1 x i16], [1 x i16], i8, i8, i8, i8, [13 x i16], [13 x i16], i64, i64, i64, [2 x i16] }
%struct.T1_EncodingRecRec_ = type { i32, i32, i32, ptr, ptr }
%struct.FT_Matrix_ = type { i64, i64, i64, i64 }
%struct.FT_Vector_ = type { i64, i64 }
%struct.PS_BlendRec_ = type { i32, i32, [4 x ptr], [16 x ptr], [4 x %struct.PS_DesignMap_], ptr, ptr, [17 x ptr], [17 x ptr], i64, [17 x ptr], [16 x i32], i32 }
%struct.PS_DesignMap_ = type { i8, ptr, ptr }

; Function Attrs: nounwind uwtable
define internal i32 @T1_Set_MM_WeightVector(ptr noundef %0, i32 noundef %1, ptr noundef %2) #0 {
  %4 = alloca i32, align 4
  %5 = alloca ptr, align 8
  %6 = alloca i32, align 4
  %7 = alloca ptr, align 8
  %8 = alloca ptr, align 8
  %9 = alloca ptr, align 8
  %10 = alloca i32, align 4
  %11 = alloca i32, align 4
  store ptr %0, ptr %5, align 8
  store i32 %1, ptr %6, align 4
  store ptr %2, ptr %7, align 8
  %12 = load ptr, ptr %5, align 8
  store ptr %12, ptr %8, align 8
  %13 = load ptr, ptr %8, align 8
  %14 = getelementptr inbounds %struct.T1_FaceRec_, ptr %13, i32 0, i32 7
  %15 = load ptr, ptr %14, align 8
  store ptr %15, ptr %9, align 8
  %16 = load ptr, ptr %9, align 8
  %17 = icmp ne ptr %16, null
  br i1 %17, label %19, label %18

18:                                               ; preds = %3
  store i32 6, ptr %4, align 4
  br label %106

19:                                               ; preds = %3
  %20 = load i32, ptr %6, align 4
  %21 = icmp ne i32 %20, 0
  br i1 %21, label %50, label %22

22:                                               ; preds = %19
  %23 = load ptr, ptr %7, align 8
  %24 = icmp ne ptr %23, null
  br i1 %24, label %50, label %25

25:                                               ; preds = %22
  store i32 0, ptr %10, align 4
  br label %26

26:                                               ; preds = %46, %25
  %27 = load i32, ptr %10, align 4
  %28 = load ptr, ptr %9, align 8
  %29 = getelementptr inbounds %struct.PS_BlendRec_, ptr %28, i32 0, i32 0
  %30 = load i32, ptr %29, align 8
  %31 = icmp ult i32 %27, %30
  br i1 %31, label %32, label %49

32:                                               ; preds = %26
  %33 = load ptr, ptr %9, align 8
  %34 = getelementptr inbounds %struct.PS_BlendRec_, ptr %33, i32 0, i32 6
  %35 = load ptr, ptr %34, align 8
  %36 = load i32, ptr %10, align 4
  %37 = zext i32 %36 to i64
  %38 = getelementptr inbounds i64, ptr %35, i64 %37
  %39 = load i64, ptr %38, align 8
  %40 = load ptr, ptr %9, align 8
  %41 = getelementptr inbounds %struct.PS_BlendRec_, ptr %40, i32 0, i32 5
  %42 = load ptr, ptr %41, align 8
  %43 = load i32, ptr %10, align 4
  %44 = zext i32 %43 to i64
  %45 = getelementptr inbounds i64, ptr %42, i64 %44
  store i64 %39, ptr %45, align 8
  br label %46

46:                                               ; preds = %32
  %47 = load i32, ptr %10, align 4
  %48 = add i32 %47, 1
  store i32 %48, ptr %10, align 4
  br label %26, !llvm.loop !21

49:                                               ; preds = %26
  br label %105

50:                                               ; preds = %22, %19
  %51 = load ptr, ptr %7, align 8
  %52 = icmp ne ptr %51, null
  br i1 %52, label %54, label %53

53:                                               ; preds = %50
  store i32 6, ptr %4, align 4
  br label %106

54:                                               ; preds = %50
  %55 = load i32, ptr %6, align 4
  %56 = load ptr, ptr %9, align 8
  %57 = getelementptr inbounds %struct.PS_BlendRec_, ptr %56, i32 0, i32 0
  %58 = load i32, ptr %57, align 8
  %59 = icmp ult i32 %55, %58
  br i1 %59, label %60, label %62

60:                                               ; preds = %54
  %61 = load i32, ptr %6, align 4
  br label %66

62:                                               ; preds = %54
  %63 = load ptr, ptr %9, align 8
  %64 = getelementptr inbounds %struct.PS_BlendRec_, ptr %63, i32 0, i32 0
  %65 = load i32, ptr %64, align 8
  br label %66

66:                                               ; preds = %62, %60
  %67 = phi i32 [ %61, %60 ], [ %65, %62 ]
  store i32 %67, ptr %11, align 4
  store i32 0, ptr %10, align 4
  br label %68

68:                                               ; preds = %84, %66
  %69 = load i32, ptr %10, align 4
  %70 = load i32, ptr %11, align 4
  %71 = icmp ult i32 %69, %70
  br i1 %71, label %72, label %87

72:                                               ; preds = %68
  %73 = load ptr, ptr %7, align 8
  %74 = load i32, ptr %10, align 4
  %75 = zext i32 %74 to i64
  %76 = getelementptr inbounds i64, ptr %73, i64 %75
  %77 = load i64, ptr %76, align 8
  %78 = load ptr, ptr %9, align 8
  %79 = getelementptr inbounds %struct.PS_BlendRec_, ptr %78, i32 0, i32 5
  %80 = load ptr, ptr %79, align 8
  %81 = load i32, ptr %10, align 4
  %82 = zext i32 %81 to i64
  %83 = getelementptr inbounds i64, ptr %80, i64 %82
  store i64 %77, ptr %83, align 8
  br label %84

84:                                               ; preds = %72
  %85 = load i32, ptr %10, align 4
  %86 = add i32 %85, 1
  store i32 %86, ptr %10, align 4
  br label %68, !llvm.loop !22

87:                                               ; preds = %68
  br label %88

88:                                               ; preds = %101, %87
  %89 = load i32, ptr %10, align 4
  %90 = load ptr, ptr %9, align 8
  %91 = getelementptr inbounds %struct.PS_BlendRec_, ptr %90, i32 0, i32 0
  %92 = load i32, ptr %91, align 8
  %93 = icmp ult i32 %89, %92
  br i1 %93, label %94, label %104

94:                                               ; preds = %88
  %95 = load ptr, ptr %9, align 8
  %96 = getelementptr inbounds %struct.PS_BlendRec_, ptr %95, i32 0, i32 5
  %97 = load ptr, ptr %96, align 8
  %98 = load i32, ptr %10, align 4
  %99 = zext i32 %98 to i64
  %100 = getelementptr inbounds i64, ptr %97, i64 %99
  store i64 0, ptr %100, align 8
  br label %101

101:                                              ; preds = %94
  %102 = load i32, ptr %10, align 4
  %103 = add i32 %102, 1
  store i32 %103, ptr %10, align 4
  br label %88, !llvm.loop !23

104:                                              ; preds = %88
  br label %105

105:                                              ; preds = %104, %49
  store i32 0, ptr %4, align 4
  br label %106

106:                                              ; preds = %105, %53, %18
  %107 = load i32, ptr %4, align 4
  ret i32 %107
}