; Function Attrs: nofree norecurse nosync nounwind memory(readwrite, inaccessiblemem: none) uwtable
define internal range(i32 0, 7) i32 @T1_Set_MM_WeightVector(ptr nocapture noundef readonly %0, i32 noundef %1, ptr noundef readonly %2) #10 {
  %4 = getelementptr inbounds i8, ptr %0, i64 848
  %5 = load ptr, ptr %4, align 8
  %.not = icmp eq ptr %5, null
  br i1 %.not, label %.loopexit, label %6

6:                                                ; preds = %3
  %7 = icmp ne i32 %1, 0
  %8 = icmp ne ptr %2, null
  %or.cond = or i1 %7, %8
  br i1 %or.cond, label %21, label %.preheader35

.preheader35:                                     ; preds = %6
  %9 = load i32, ptr %5, align 8
  %.not42 = icmp eq i32 %9, 0
  br i1 %.not42, label %.loopexit, label %.lr.ph

.lr.ph:                                           ; preds = %.preheader35
  %10 = getelementptr inbounds i8, ptr %5, i64 272
  %11 = getelementptr inbounds i8, ptr %5, i64 264
  br label %12

12:                                               ; preds = %.lr.ph, %12
  %indvars.iv = phi i64 [ 0, %.lr.ph ], [ %indvars.iv.next, %12 ]
  %13 = load ptr, ptr %10, align 8
  %14 = getelementptr inbounds i64, ptr %13, i64 %indvars.iv
  %15 = load i64, ptr %14, align 8
  %16 = load ptr, ptr %11, align 8
  %17 = getelementptr inbounds i64, ptr %16, i64 %indvars.iv
  store i64 %15, ptr %17, align 8
  %indvars.iv.next = add nuw nsw i64 %indvars.iv, 1
  %18 = load i32, ptr %5, align 8
  %19 = zext i32 %18 to i64
  %20 = icmp ult i64 %indvars.iv.next, %19
  br i1 %20, label %12, label %.loopexit, !llvm.loop !28

21:                                               ; preds = %6
  br i1 %8, label %22, label %.loopexit

22:                                               ; preds = %21
  %23 = load i32, ptr %5, align 8
  %. = tail call i32 @llvm.umin.i32(i32 %23, i32 %1)
  %.not43 = icmp eq i32 %., 0
  br i1 %.not43, label %.preheader, label %.lr.ph39

.lr.ph39:                                         ; preds = %22
  %24 = getelementptr inbounds i8, ptr %5, i64 264
  %wide.trip.count = zext i32 %. to i64
  br label %29

.preheader.loopexit:                              ; preds = %29
  %.pre = load i32, ptr %5, align 8
  br label %.preheader

.preheader:                                       ; preds = %.preheader.loopexit, %22
  %25 = phi i32 [ %23, %22 ], [ %.pre, %.preheader.loopexit ]
  %26 = icmp ult i32 %., %25
  br i1 %26, label %.lr.ph41, label %.loopexit

.lr.ph41:                                         ; preds = %.preheader
  %27 = getelementptr inbounds i8, ptr %5, i64 264
  %28 = zext i32 %. to i64
  br label %34

29:                                               ; preds = %.lr.ph39, %29
  %indvars.iv46 = phi i64 [ 0, %.lr.ph39 ], [ %indvars.iv.next47, %29 ]
  %30 = getelementptr inbounds i64, ptr %2, i64 %indvars.iv46
  %31 = load i64, ptr %30, align 8
  %32 = load ptr, ptr %24, align 8
  %33 = getelementptr inbounds i64, ptr %32, i64 %indvars.iv46
  store i64 %31, ptr %33, align 8
  %indvars.iv.next47 = add nuw nsw i64 %indvars.iv46, 1
  %exitcond.not = icmp eq i64 %indvars.iv.next47, %wide.trip.count
  br i1 %exitcond.not, label %.preheader.loopexit, label %29, !llvm.loop !29

34:                                               ; preds = %.lr.ph41, %34
  %indvars.iv49 = phi i64 [ %28, %.lr.ph41 ], [ %indvars.iv.next50, %34 ]
  %35 = load ptr, ptr %27, align 8
  %36 = getelementptr inbounds i64, ptr %35, i64 %indvars.iv49
  store i64 0, ptr %36, align 8
  %indvars.iv.next50 = add nuw nsw i64 %indvars.iv49, 1
  %37 = load i32, ptr %5, align 8
  %38 = zext i32 %37 to i64
  %39 = icmp ult i64 %indvars.iv.next50, %38
  br i1 %39, label %34, label %.loopexit, !llvm.loop !30

.loopexit:                                        ; preds = %12, %34, %.preheader35, %.preheader, %21, %3
  %.0 = phi i32 [ 6, %3 ], [ 6, %21 ], [ 0, %.preheader ], [ 0, %.preheader35 ], [ 0, %34 ], [ 0, %12 ]
  ret i32 %.0
}